; ModuleID = '24/982.c'
source_filename = "24/982.c"
target datalayout = "e-m:e-p270:32:32-p271:32:32-p272:64:64-i64:64-f80:128-n8:16:32:64-S128"
target triple = "x86_64-pc-linux-gnu"

@.str = private unnamed_addr constant [7 x i8] c"%s\0A%s\0A\00", align 1

; Function Attrs: noinline nounwind uwtable
define dso_local i32 @main() #0 {
  %1 = alloca i32, align 4
  %2 = alloca [50 x i32], align 16
  %3 = alloca i32, align 4
  %4 = alloca i32, align 4
  %5 = alloca i32, align 4
  %6 = alloca i32, align 4
  %7 = alloca i32, align 4
  %8 = alloca i32, align 4
  %9 = alloca i32, align 4
  %10 = alloca i32, align 4
  %11 = alloca [999 x i8], align 16
  %12 = alloca [50 x [50 x i8]], align 16
  store i32 0, i32* %1, align 4
  store i32 0, i32* %3, align 4
  store i32 0, i32* %4, align 4
  store i32 0, i32* %6, align 4
  %13 = getelementptr inbounds [999 x i8], [999 x i8]* %11, i64 0, i64 0
  %14 = call i32 (i8*, ...) bitcast (i32 (...)* @gets to i32 (i8*, ...)*)(i8* %13)
  store i32 0, i32* %4, align 4
  br label %15

15:                                               ; preds = %104, %0
  %16 = load i32, i32* %4, align 4
  %17 = icmp slt i32 %16, 50
  br i1 %17, label %18, label %107

18:                                               ; preds = %15
  %19 = load i32, i32* %6, align 4
  store i32 %19, i32* %5, align 4
  store i32 0, i32* %7, align 4
  br label %20

20:                                               ; preds = %90, %18
  %21 = load i32, i32* %5, align 4
  %22 = icmp slt i32 %21, 999
  %23 = zext i1 %22 to i32
  %24 = load i32, i32* %7, align 4
  %25 = icmp slt i32 %24, 50
  br i1 %25, label %26, label %95

26:                                               ; preds = %20
  %27 = load i32, i32* %5, align 4
  %28 = sext i32 %27 to i64
  %29 = getelementptr inbounds [999 x i8], [999 x i8]* %11, i64 0, i64 %28
  %30 = load i8, i8* %29, align 1
  %31 = sext i8 %30 to i32
  %32 = icmp ne i32 %31, 32
  br i1 %32, label %33, label %51

33:                                               ; preds = %26
  %34 = load i32, i32* %5, align 4
  %35 = sext i32 %34 to i64
  %36 = getelementptr inbounds [999 x i8], [999 x i8]* %11, i64 0, i64 %35
  %37 = load i8, i8* %36, align 1
  %38 = sext i8 %37 to i32
  %39 = icmp ne i32 %38, 0
  br i1 %39, label %40, label %51

40:                                               ; preds = %33
  %41 = load i32, i32* %5, align 4
  %42 = sext i32 %41 to i64
  %43 = getelementptr inbounds [999 x i8], [999 x i8]* %11, i64 0, i64 %42
  %44 = load i8, i8* %43, align 1
  %45 = load i32, i32* %4, align 4
  %46 = sext i32 %45 to i64
  %47 = getelementptr inbounds [50 x [50 x i8]], [50 x [50 x i8]]* %12, i64 0, i64 %46
  %48 = load i32, i32* %7, align 4
  %49 = sext i32 %48 to i64
  %50 = getelementptr inbounds [50 x i8], [50 x i8]* %47, i64 0, i64 %49
  store i8 %44, i8* %50, align 1
  br label %82

51:                                               ; preds = %33, %26
  %52 = load i32, i32* %5, align 4
  %53 = sext i32 %52 to i64
  %54 = getelementptr inbounds [999 x i8], [999 x i8]* %11, i64 0, i64 %53
  %55 = load i8, i8* %54, align 1
  %56 = sext i8 %55 to i32
  %57 = icmp eq i32 %56, 32
  br i1 %57, label %58, label %70

58:                                               ; preds = %51
  %59 = load i32, i32* %5, align 4
  %60 = sext i32 %59 to i64
  %61 = getelementptr inbounds [999 x i8], [999 x i8]* %11, i64 0, i64 %60
  %62 = load i8, i8* %61, align 1
  %63 = sext i8 %62 to i32
  %64 = icmp ne i32 %63, 0
  br i1 %64, label %65, label %70

65:                                               ; preds = %58
  %66 = load i32, i32* %3, align 4
  %67 = add nsw i32 %66, 1
  store i32 %67, i32* %3, align 4
  %68 = load i32, i32* %5, align 4
  %69 = add nsw i32 %68, 1
  store i32 %69, i32* %6, align 4
  br label %95

70:                                               ; preds = %58, %51
  %71 = load i32, i32* %5, align 4
  %72 = sext i32 %71 to i64
  %73 = getelementptr inbounds [999 x i8], [999 x i8]* %11, i64 0, i64 %72
  %74 = load i8, i8* %73, align 1
  %75 = sext i8 %74 to i32
  %76 = icmp eq i32 %75, 0
  br i1 %76, label %77, label %80

77:                                               ; preds = %70
  %78 = load i32, i32* %3, align 4
  %79 = add nsw i32 %78, 1
  store i32 %79, i32* %3, align 4
  br label %95

80:                                               ; preds = %70
  br label %81

81:                                               ; preds = %80
  br label %82

82:                                               ; preds = %81, %40
  %83 = load i32, i32* %4, align 4
  %84 = sext i32 %83 to i64
  %85 = getelementptr inbounds [50 x [50 x i8]], [50 x [50 x i8]]* %12, i64 0, i64 %84
  %86 = load i32, i32* %7, align 4
  %87 = add nsw i32 %86, 1
  %88 = sext i32 %87 to i64
  %89 = getelementptr inbounds [50 x i8], [50 x i8]* %85, i64 0, i64 %88
  store i8 0, i8* %89, align 1
  br label %90

90:                                               ; preds = %82
  %91 = load i32, i32* %5, align 4
  %92 = add nsw i32 %91, 1
  store i32 %92, i32* %5, align 4
  %93 = load i32, i32* %7, align 4
  %94 = add nsw i32 %93, 1
  store i32 %94, i32* %7, align 4
  br label %20

95:                                               ; preds = %77, %65, %20
  %96 = load i32, i32* %5, align 4
  %97 = sext i32 %96 to i64
  %98 = getelementptr inbounds [999 x i8], [999 x i8]* %11, i64 0, i64 %97
  %99 = load i8, i8* %98, align 1
  %100 = sext i8 %99 to i32
  %101 = icmp eq i32 %100, 0
  br i1 %101, label %102, label %103

102:                                              ; preds = %95
  br label %107

103:                                              ; preds = %95
  br label %104

104:                                              ; preds = %103
  %105 = load i32, i32* %4, align 4
  %106 = add nsw i32 %105, 1
  store i32 %106, i32* %4, align 4
  br label %15

107:                                              ; preds = %102, %15
  store i32 0, i32* %8, align 4
  br label %108

108:                                              ; preds = %122, %107
  %109 = load i32, i32* %8, align 4
  %110 = load i32, i32* %3, align 4
  %111 = icmp slt i32 %109, %110
  br i1 %111, label %112, label %125

112:                                              ; preds = %108
  %113 = load i32, i32* %8, align 4
  %114 = sext i32 %113 to i64
  %115 = getelementptr inbounds [50 x [50 x i8]], [50 x [50 x i8]]* %12, i64 0, i64 %114
  %116 = getelementptr inbounds [50 x i8], [50 x i8]* %115, i64 0, i64 0
  %117 = call i64 @strlen(i8* %116) #3
  %118 = trunc i64 %117 to i32
  %119 = load i32, i32* %8, align 4
  %120 = sext i32 %119 to i64
  %121 = getelementptr inbounds [50 x i32], [50 x i32]* %2, i64 0, i64 %120
  store i32 %118, i32* %121, align 4
  br label %122

122:                                              ; preds = %112
  %123 = load i32, i32* %8, align 4
  %124 = add nsw i32 %123, 1
  store i32 %124, i32* %8, align 4
  br label %108

125:                                              ; preds = %108
  store i32 0, i32* %10, align 4
  store i32 0, i32* %9, align 4
  store i32 1, i32* %8, align 4
  br label %126

126:                                              ; preds = %156, %125
  %127 = load i32, i32* %8, align 4
  %128 = load i32, i32* %3, align 4
  %129 = icmp slt i32 %127, %128
  br i1 %129, label %130, label %159

130:                                              ; preds = %126
  %131 = load i32, i32* %8, align 4
  %132 = sext i32 %131 to i64
  %133 = getelementptr inbounds [50 x i32], [50 x i32]* %2, i64 0, i64 %132
  %134 = load i32, i32* %133, align 4
  %135 = load i32, i32* %10, align 4
  %136 = sext i32 %135 to i64
  %137 = getelementptr inbounds [50 x i32], [50 x i32]* %2, i64 0, i64 %136
  %138 = load i32, i32* %137, align 4
  %139 = icmp sgt i32 %134, %138
  br i1 %139, label %140, label %142

140:                                              ; preds = %130
  %141 = load i32, i32* %8, align 4
  store i32 %141, i32* %10, align 4
  br label %155

142:                                              ; preds = %130
  %143 = load i32, i32* %8, align 4
  %144 = sext i32 %143 to i64
  %145 = getelementptr inbounds [50 x i32], [50 x i32]* %2, i64 0, i64 %144
  %146 = load i32, i32* %145, align 4
  %147 = load i32, i32* %9, align 4
  %148 = sext i32 %147 to i64
  %149 = getelementptr inbounds [50 x i32], [50 x i32]* %2, i64 0, i64 %148
  %150 = load i32, i32* %149, align 4
  %151 = icmp slt i32 %146, %150
  br i1 %151, label %152, label %154

152:                                              ; preds = %142
  %153 = load i32, i32* %8, align 4
  store i32 %153, i32* %9, align 4
  br label %154

154:                                              ; preds = %152, %142
  br label %155

155:                                              ; preds = %154, %140
  br label %156

156:                                              ; preds = %155
  %157 = load i32, i32* %8, align 4
  %158 = add nsw i32 %157, 1
  store i32 %158, i32* %8, align 4
  br label %126

159:                                              ; preds = %126
  %160 = load i32, i32* %10, align 4
  %161 = sext i32 %160 to i64
  %162 = getelementptr inbounds [50 x [50 x i8]], [50 x [50 x i8]]* %12, i64 0, i64 %161
  %163 = getelementptr inbounds [50 x i8], [50 x i8]* %162, i64 0, i64 0
  %164 = load i32, i32* %9, align 4
  %165 = sext i32 %164 to i64
  %166 = getelementptr inbounds [50 x [50 x i8]], [50 x [50 x i8]]* %12, i64 0, i64 %165
  %167 = getelementptr inbounds [50 x i8], [50 x i8]* %166, i64 0, i64 0
  %168 = call i32 (i8*, ...) @printf(i8* getelementptr inbounds ([7 x i8], [7 x i8]* @.str, i64 0, i64 0), i8* %163, i8* %167)
  ret i32 0
}

declare dso_local i32 @gets(...) #1

; Function Attrs: nounwind readonly
declare dso_local i64 @strlen(i8*) #2

declare dso_local i32 @printf(i8*, ...) #1


!llvm.module.flags = !{!0}
!llvm.ident = !{!1}

!0 = !{i32 1, !"wchar_size", i32 4}
!1 = !{!"clang version 10.0.0-4ubuntu1 "}
